target datalayout = "e-m:e-p270:32:32-p271:32:32-p272:64:64-i64:64-i128:128-f80:128-n8:16:32:64-S128"
target triple = "x86_64-pc-linux-gnu"

%struct.mbedtls_pk_context = type { ptr, ptr }

; Function Attrs: nounwind uwtable
define internal i32 @rsa_sign_wrap(ptr noundef %0, i32 noundef %1, ptr noundef %2, i64 noundef %3, ptr noundef %4, i64 noundef %5, ptr noundef %6, ptr noundef %7, ptr noundef %8) #0 {
  %10 = alloca i32, align 4
  %11 = alloca ptr, align 8
  %12 = alloca i32, align 4
  %13 = alloca ptr, align 8
  %14 = alloca i64, align 8
  %15 = alloca ptr, align 8
  %16 = alloca i64, align 8
  %17 = alloca ptr, align 8
  %18 = alloca ptr, align 8
  %19 = alloca ptr, align 8
  %20 = alloca ptr, align 8
  %21 = alloca i32, align 4
  store ptr %0, ptr %11, align 8, !tbaa !3
  store i32 %1, ptr %12, align 4, !tbaa !13
  store ptr %2, ptr %13, align 8, !tbaa !15
  store i64 %3, ptr %14, align 8, !tbaa !17
  store ptr %4, ptr %15, align 8, !tbaa !15
  store i64 %5, ptr %16, align 8, !tbaa !17
  store ptr %6, ptr %17, align 8, !tbaa !19
  store ptr %7, ptr %18, align 8, !tbaa !21
  store ptr %8, ptr %19, align 8, !tbaa !21
  call void @llvm.lifetime.start.p0(i64 8, ptr %20) #6
  %22 = load ptr, ptr %11, align 8, !tbaa !3
  %23 = getelementptr inbounds nuw %struct.mbedtls_pk_context, ptr %22, i32 0, i32 1
  %24 = load ptr, ptr %23, align 8, !tbaa !8
  store ptr %24, ptr %20, align 8, !tbaa !11
  %25 = load i32, ptr %12, align 4, !tbaa !13
  %26 = icmp eq i32 %25, 0
  br i1 %26, label %27, label %31

27:                                               ; preds = %9
  %28 = load i64, ptr %14, align 8, !tbaa !17
  %29 = icmp ult i64 4294967295, %28
  br i1 %29, label %30, label %31

30:                                               ; preds = %27
  store i32 -16000, ptr %10, align 4
  store i32 1, ptr %21, align 4
  br label %50

31:                                               ; preds = %27, %9
  %32 = load ptr, ptr %20, align 8, !tbaa !11
  %33 = call i64 @mbedtls_rsa_get_len(ptr noundef %32)
  %34 = load ptr, ptr %17, align 8, !tbaa !19
  store i64 %33, ptr %34, align 8, !tbaa !17
  %35 = load i64, ptr %16, align 8, !tbaa !17
  %36 = load ptr, ptr %17, align 8, !tbaa !19
  %37 = load i64, ptr %36, align 8, !tbaa !17
  %38 = icmp ult i64 %35, %37
  br i1 %38, label %39, label %40

39:                                               ; preds = %31
  store i32 -14464, ptr %10, align 4
  store i32 1, ptr %21, align 4
  br label %50

40:                                               ; preds = %31
  %41 = load ptr, ptr %20, align 8, !tbaa !11
  %42 = load ptr, ptr %18, align 8, !tbaa !21
  %43 = load ptr, ptr %19, align 8, !tbaa !21
  %44 = load i32, ptr %12, align 4, !tbaa !13
  %45 = load i64, ptr %14, align 8, !tbaa !17
  %46 = trunc i64 %45 to i32
  %47 = load ptr, ptr %13, align 8, !tbaa !15
  %48 = load ptr, ptr %15, align 8, !tbaa !15
  %49 = call i32 @mbedtls_rsa_pkcs1_sign(ptr noundef %41, ptr noundef %42, ptr noundef %43, i32 noundef %44, i32 noundef %46, ptr noundef %47, ptr noundef %48)
  store i32 %49, ptr %10, align 4
  store i32 1, ptr %21, align 4
  br label %50

50:                                               ; preds = %40, %39, %30
  call void @llvm.lifetime.end.p0(i64 8, ptr %20) #6
  %51 = load i32, ptr %10, align 4
  ret i32 %51
}