; Function Attrs: nounwind uwtable
define internal i32 @rsa_sign_wrap(ptr noundef readonly captures(none) %0, i32 noundef %1, ptr noundef %2, i64 noundef %3, ptr noundef %4, i64 noundef %5, ptr noundef writeonly captures(none) %6, ptr noundef %7, ptr noundef %8) #0 {
  %10 = getelementptr inbounds nuw i8, ptr %0, i64 8
  %11 = load ptr, ptr %10, align 8, !tbaa !3
  %12 = icmp eq i32 %1, 0
  %13 = icmp ugt i64 %3, 4294967295
  %or.cond = and i1 %12, %13
  br i1 %or.cond, label %20, label %14

14:                                               ; preds = %9
  %15 = tail call i64 @mbedtls_rsa_get_len(ptr noundef %11) #10
  store i64 %15, ptr %6, align 8, !tbaa !9
  %16 = icmp ult i64 %5, %15
  br i1 %16, label %20, label %17

17:                                               ; preds = %14
  %18 = trunc i64 %3 to i32
  %19 = tail call i32 @mbedtls_rsa_pkcs1_sign(ptr noundef %11, ptr noundef %7, ptr noundef %8, i32 noundef %1, i32 noundef %18, ptr noundef %2, ptr noundef %4) #10
  br label %20

20:                                               ; preds = %14, %9, %17
  %.0 = phi i32 [ %19, %17 ], [ -16000, %9 ], [ -14464, %14 ]
  ret i32 %.0
}